; Function Attrs: mustprogress nounwind uwtable
define hidden noundef zeroext i1 @_ZN6hermes10evalIsTrueERNS_9IRBuilderEPNS_7LiteralE(ptr noundef nonnull align 8 dereferenceable(40) %builder, ptr noundef readonly captures(none) %operand) local_unnamed_addr #0 {
entry:
  %0 = load i8, ptr %operand, align 8
  switch i8 %0, label %return [
    i8 113, label %_ZN6hermes13evalToBooleanERNS_9IRBuilderEPNS_7LiteralE.exit
    i8 112, label %_ZN6hermes13evalToBooleanERNS_9IRBuilderEPNS_7LiteralE.exit
    i8 117, label %sw.bb1.i
    i8 114, label %sw.bb4.i
    i8 116, label %sw.bb9.i
  ]

sw.bb1.i:                                         ; preds = %entry
  %value.i.i = getelementptr inbounds nuw i8, ptr %operand, i64 40
  %1 = load i8, ptr %value.i.i, align 8
  %tobool.i.i = trunc i8 %1 to i1
  br label %_ZN6hermes13evalToBooleanERNS_9IRBuilderEPNS_7LiteralE.exit

sw.bb4.i:                                         ; preds = %entry
  %value.i5.i = getelementptr inbounds nuw i8, ptr %operand, i64 48
  %2 = load double, ptr %value.i5.i, align 8
  %3 = fcmp one double %2, 0.000000e+00
  br label %_ZN6hermes13evalToBooleanERNS_9IRBuilderEPNS_7LiteralE.exit

sw.bb9.i:                                         ; preds = %entry
  %value.i6.i = getelementptr inbounds nuw i8, ptr %operand, i64 48
  %retval.sroa.0.0.copyload.i.i = load ptr, ptr %value.i6.i, align 8
  %Length.i.i = getelementptr inbounds nuw i8, ptr %retval.sroa.0.0.copyload.i.i, i64 8
  %4 = load i64, ptr %Length.i.i, align 8
  %cmp.i.i = icmp ne i64 %4, 0
  br label %_ZN6hermes13evalToBooleanERNS_9IRBuilderEPNS_7LiteralE.exit

_ZN6hermes13evalToBooleanERNS_9IRBuilderEPNS_7LiteralE.exit: ; preds = %entry, %entry, %sw.bb1.i, %sw.bb4.i, %sw.bb9.i
  %value.0.shrunk.i = phi i1 [ %cmp.i.i, %sw.bb9.i ], [ %3, %sw.bb4.i ], [ %tobool.i.i, %sw.bb1.i ], [ false, %entry ], [ false, %entry ]
  %call15.i = tail call noundef ptr @_ZN6hermes9IRBuilder14getLiteralBoolEb(ptr noundef nonnull align 8 dereferenceable(40) %builder, i1 noundef zeroext %value.0.shrunk.i) #6
  %tobool.not = icmp eq ptr %call15.i, null
  br i1 %tobool.not, label %return, label %if.then

if.then:                                          ; preds = %_ZN6hermes13evalToBooleanERNS_9IRBuilderEPNS_7LiteralE.exit
  %value.i = getelementptr inbounds nuw i8, ptr %call15.i, i64 40
  %5 = load i8, ptr %value.i, align 8
  %tobool.i = trunc i8 %5 to i1
  br label %return

return:                                           ; preds = %entry, %_ZN6hermes13evalToBooleanERNS_9IRBuilderEPNS_7LiteralE.exit, %if.then
  %retval.0 = phi i1 [ %tobool.i, %if.then ], [ false, %_ZN6hermes13evalToBooleanERNS_9IRBuilderEPNS_7LiteralE.exit ], [ false, %entry ]
  ret i1 %retval.0
}